target datalayout = "e-m:e-p270:32:32-p271:32:32-p272:64:64-i64:64-i128:128-f80:128-n8:16:32:64-S128"
target triple = "x86_64-pc-linux-gnu"

%class.btTaskSchedulerSequential = type { %class.btITaskScheduler.base, [3 x i8] }
%class.btITaskScheduler.base = type <{ ptr, ptr, i32, i8 }>
%class.btITaskScheduler = type <{ ptr, ptr, i32, i8, [3 x i8] }>

@_ZZ28btGetSequentialTaskSchedulervE14sTaskScheduler = internal global %class.btTaskSchedulerSequential zeroinitializer, align 8
@_ZGVZ28btGetSequentialTaskSchedulervE14sTaskScheduler = internal global i64 0, align 8
@__dso_handle = external hidden global i8
@.str = private unnamed_addr constant [11 x i8] c"Sequential\00", align 1

; Function Attrs: mustprogress nounwind uwtable
define dso_local void @_ZN16btITaskSchedulerC2EPKc(ptr noundef nonnull align 8 dereferenceable(21) %0, ptr noundef %1) unnamed_addr #1 align 2 {
  %3 = alloca ptr, align 8
  %4 = alloca ptr, align 8
  store ptr %0, ptr %3, align 8, !tbaa !20
  store ptr %1, ptr %4, align 8, !tbaa !22
  %5 = load ptr, ptr %3, align 8
  store ptr getelementptr inbounds inrange(-16, 80) ({ [12 x ptr] }, ptr @_ZTV16btITaskScheduler, i32 0, i32 0, i32 2), ptr %5, align 8, !tbaa !24
  %6 = load ptr, ptr %4, align 8, !tbaa !22
  %7 = getelementptr inbounds nuw %class.btITaskScheduler, ptr %5, i32 0, i32 1
  store ptr %6, ptr %7, align 8, !tbaa !26
  %8 = getelementptr inbounds nuw %class.btITaskScheduler, ptr %5, i32 0, i32 2
  store i32 0, ptr %8, align 8, !tbaa !29
  %9 = getelementptr inbounds nuw %class.btITaskScheduler, ptr %5, i32 0, i32 3
  store i8 0, ptr %9, align 4, !tbaa !30
  ret void
}

; Function Attrs: mustprogress nounwind uwtable
define linkonce_odr dso_local void @_ZN25btTaskSchedulerSequentialC2Ev(ptr noundef nonnull align 8 dereferenceable(21) %0) unnamed_addr #1 comdat align 2 {
  %2 = alloca ptr, align 8
  store ptr %0, ptr %2, align 8, !tbaa !38
  %3 = load ptr, ptr %2, align 8
  call void @_ZN16btITaskSchedulerC2EPKc(ptr noundef nonnull align 8 dereferenceable(21) %3, ptr noundef @.str)
  store ptr getelementptr inbounds inrange(-16, 80) ({ [12 x ptr] }, ptr @_ZTV25btTaskSchedulerSequential, i32 0, i32 0, i32 2), ptr %3, align 8, !tbaa !24
  ret void
}

; Function Attrs: mustprogress uwtable
define dso_local noundef ptr @_Z28btGetSequentialTaskSchedulerv() #2 personality ptr @__gxx_personality_v0 {
  %1 = alloca ptr, align 8
  %2 = alloca i32, align 4
  %3 = load atomic i8, ptr @_ZGVZ28btGetSequentialTaskSchedulervE14sTaskScheduler acquire, align 8
  %4 = icmp eq i8 %3, 0
  br i1 %4, label %5, label %11, !prof !37

5:                                                ; preds = %0
  %6 = call i32 @__cxa_guard_acquire(ptr @_ZGVZ28btGetSequentialTaskSchedulervE14sTaskScheduler) #4
  %7 = icmp ne i32 %6, 0
  br i1 %7, label %8, label %11

8:                                                ; preds = %5
  invoke void @_ZN25btTaskSchedulerSequentialC2Ev(ptr noundef nonnull align 8 dereferenceable(21) @_ZZ28btGetSequentialTaskSchedulervE14sTaskScheduler)
          to label %9 unwind label %12

9:                                                ; preds = %8
  %10 = call i32 @__cxa_atexit(ptr @_ZN16btITaskSchedulerD2Ev, ptr @_ZZ28btGetSequentialTaskSchedulervE14sTaskScheduler, ptr @__dso_handle) #4
  call void @__cxa_guard_release(ptr @_ZGVZ28btGetSequentialTaskSchedulervE14sTaskScheduler) #4
  br label %11

11:                                               ; preds = %9, %5, %0
  ret ptr @_ZZ28btGetSequentialTaskSchedulervE14sTaskScheduler

12:                                               ; preds = %8
  %13 = landingpad { ptr, i32 }
          cleanup
  %14 = extractvalue { ptr, i32 } %13, 0
  store ptr %14, ptr %1, align 8
  %15 = extractvalue { ptr, i32 } %13, 1
  store i32 %15, ptr %2, align 4
  call void @__cxa_guard_abort(ptr @_ZGVZ28btGetSequentialTaskSchedulervE14sTaskScheduler) #4
  br label %16

16:                                               ; preds = %12
  %17 = load ptr, ptr %1, align 8
  %18 = load i32, ptr %2, align 4
  %19 = insertvalue { ptr, i32 } poison, ptr %17, 0
  %20 = insertvalue { ptr, i32 } %19, i32 %18, 1
  resume { ptr, i32 } %20
}