; Function Attrs: mustprogress nofree nounwind uwtable
define dso_local noundef nonnull ptr @_Z28btGetSequentialTaskSchedulerv() local_unnamed_addr #9 personality ptr @__gxx_personality_v0 {
  %1 = load atomic i8, ptr @_ZGVZ28btGetSequentialTaskSchedulervE14sTaskScheduler acquire, align 8
  %2 = icmp eq i8 %1, 0
  br i1 %2, label %3, label %6, !prof !24

3:                                                ; preds = %0
  %4 = tail call i32 @__cxa_guard_acquire(ptr nonnull @_ZGVZ28btGetSequentialTaskSchedulervE14sTaskScheduler) #17
  %.not = icmp eq i32 %4, 0
  br i1 %.not, label %6, label %5

5:                                                ; preds = %3
  store ptr @.str, ptr getelementptr inbounds nuw (i8, ptr @_ZZ28btGetSequentialTaskSchedulervE14sTaskScheduler, i64 8), align 8, !tbaa !13
  store i32 0, ptr getelementptr inbounds nuw (i8, ptr @_ZZ28btGetSequentialTaskSchedulervE14sTaskScheduler, i64 16), align 8, !tbaa !18
  store i8 0, ptr getelementptr inbounds nuw (i8, ptr @_ZZ28btGetSequentialTaskSchedulervE14sTaskScheduler, i64 20), align 4, !tbaa !19
  store ptr getelementptr inbounds nuw inrange(-16, 80) (i8, ptr @_ZTV25btTaskSchedulerSequential, i64 16), ptr @_ZZ28btGetSequentialTaskSchedulervE14sTaskScheduler, align 8, !tbaa !11
  tail call void @__cxa_guard_release(ptr nonnull @_ZGVZ28btGetSequentialTaskSchedulervE14sTaskScheduler) #17
  br label %6

6:                                                ; preds = %5, %3, %0
  ret ptr @_ZZ28btGetSequentialTaskSchedulervE14sTaskScheduler
}